target datalayout = "e-m:e-p270:32:32-p271:32:32-p272:64:64-i64:64-i128:128-f80:128-n8:16:32:64-S128"
target triple = "x86_64-pc-linux-gnu"

; Function Attrs: mustprogress nounwind uwtable
define noundef i32 @_ZN6icu_7710GreekUpper13getLetterDataEi(i32 noundef %0) #5 {
  %2 = alloca i32, align 4
  %3 = alloca i32, align 4
  store i32 %0, ptr %3, align 4, !tbaa !3
  %4 = load i32, ptr %3, align 4, !tbaa !3
  %5 = icmp slt i32 %4, 880
  br i1 %5, label %15, label %6

6:                                                ; preds = %1
  %7 = load i32, ptr %3, align 4, !tbaa !3
  %8 = icmp slt i32 8486, %7
  br i1 %8, label %15, label %9

9:                                                ; preds = %6
  %10 = load i32, ptr %3, align 4, !tbaa !3
  %11 = icmp slt i32 1023, %10
  br i1 %11, label %12, label %16

12:                                               ; preds = %9
  %13 = load i32, ptr %3, align 4, !tbaa !3
  %14 = icmp slt i32 %13, 7936
  br i1 %14, label %15, label %16

15:                                               ; preds = %12, %6, %1
  store i32 0, ptr %2, align 4
  br label %41

16:                                               ; preds = %12, %9
  %17 = load i32, ptr %3, align 4, !tbaa !3
  %18 = icmp sle i32 %17, 1023
  br i1 %18, label %19, label %26

19:                                               ; preds = %16
  %20 = load i32, ptr %3, align 4, !tbaa !3
  %21 = sub nsw i32 %20, 880
  %22 = sext i32 %21 to i64
  %23 = getelementptr inbounds [144 x i16], ptr @_ZN6icu_7710GreekUpperL8data0370E, i64 0, i64 %22
  %24 = load i16, ptr %23, align 2, !tbaa !26
  %25 = zext i16 %24 to i32
  store i32 %25, ptr %2, align 4
  br label %41

26:                                               ; preds = %16
  %27 = load i32, ptr %3, align 4, !tbaa !3
  %28 = icmp sle i32 %27, 8191
  br i1 %28, label %29, label %36

29:                                               ; preds = %26
  %30 = load i32, ptr %3, align 4, !tbaa !3
  %31 = sub nsw i32 %30, 7936
  %32 = sext i32 %31 to i64
  %33 = getelementptr inbounds [256 x i16], ptr @_ZN6icu_7710GreekUpperL8data1F00E, i64 0, i64 %32
  %34 = load i16, ptr %33, align 2, !tbaa !26
  %35 = zext i16 %34 to i32
  store i32 %35, ptr %2, align 4
  br label %41

36:                                               ; preds = %26
  %37 = load i32, ptr %3, align 4, !tbaa !3
  %38 = icmp eq i32 %37, 8486
  br i1 %38, label %39, label %40

39:                                               ; preds = %36
  store i32 5033, ptr %2, align 4
  br label %41

40:                                               ; preds = %36
  store i32 0, ptr %2, align 4
  br label %41

41:                                               ; preds = %40, %39, %29, %19, %15
  %42 = load i32, ptr %2, align 4
  ret i32 %42
}