; Function Attrs: mustprogress nofree norecurse nosync nounwind willreturn memory(none) uwtable
define noundef range(i32 0, 65536) i32 @_ZN6icu_7710GreekUpper13getLetterDataEi(i32 noundef %0) local_unnamed_addr #6 {
  %2 = add i32 %0, -8487
  %or.cond = icmp ult i32 %2, -7607
  %3 = add nsw i32 %0, -1024
  %or.cond3 = icmp ult i32 %3, 6912
  %or.cond14 = select i1 %or.cond, i1 true, i1 %or.cond3
  br i1 %or.cond14, label %20, label %4

4:                                                ; preds = %1
  %5 = icmp samesign ult i32 %0, 1024
  br i1 %5, label %6, label %11

6:                                                ; preds = %4
  %7 = add nsw i32 %0, -880
  %8 = zext nneg i32 %7 to i64
  %9 = getelementptr inbounds nuw [144 x i16], ptr @_ZN6icu_7710GreekUpperL8data0370E, i64 0, i64 %8
  %10 = load i16, ptr %9, align 2, !tbaa !34
  br label %20

11:                                               ; preds = %4
  %12 = icmp samesign ult i32 %0, 8192
  br i1 %12, label %13, label %18

13:                                               ; preds = %11
  %14 = add nsw i32 %0, -7936
  %15 = sext i32 %14 to i64
  %16 = getelementptr inbounds [256 x i16], ptr @_ZN6icu_7710GreekUpperL8data1F00E, i64 0, i64 %15
  %17 = load i16, ptr %16, align 2, !tbaa !34
  br label %20

18:                                               ; preds = %11
  %19 = icmp eq i32 %0, 8486
  %. = select i1 %19, i16 5033, i16 0
  br label %20

20:                                               ; preds = %18, %1, %13, %6
  %.0.shrunk = phi i16 [ %10, %6 ], [ %17, %13 ], [ 0, %1 ], [ %., %18 ]
  %.0 = zext i16 %.0.shrunk to i32
  ret i32 %.0
}